target datalayout = "e-m:e-p270:32:32-p271:32:32-p272:64:64-i64:64-i128:128-f80:128-n8:16:32:64-S128"
target triple = "x86_64-pc-linux-gnu"

@.str.7 = private unnamed_addr constant [40 x i8] c"../openssl/test/namemap_internal_test.c\00", align 1
@.str.15 = private unnamed_addr constant [3 x i8] c"nm\00", align 1

; Function Attrs: nounwind uwtable
define internal i32 @test_namemap_stored() #0 {
  %1 = alloca ptr, align 8
  call void @llvm.lifetime.start.p0(i64 8, ptr %1) #3
  %2 = call ptr @ossl_namemap_stored(ptr noundef null)
  store ptr %2, ptr %1, align 8, !tbaa !4
  %3 = load ptr, ptr %1, align 8, !tbaa !4
  %4 = call i32 @test_ptr(ptr noundef @.str.7, i32 noundef 69, ptr noundef @.str.15, ptr noundef %3)
  %5 = icmp ne i32 %4, 0
  br i1 %5, label %6, label %10

6:                                                ; preds = %0
  %7 = load ptr, ptr %1, align 8, !tbaa !4
  %8 = call i32 @test_namemap(ptr noundef %7)
  %9 = icmp ne i32 %8, 0
  br label %10

10:                                               ; preds = %6, %0
  %11 = phi i1 [ false, %0 ], [ %9, %6 ]
  %12 = zext i1 %11 to i32
  call void @llvm.lifetime.end.p0(i64 8, ptr %1) #3
  ret i32 %12
}