; Function Attrs: nounwind uwtable
define internal range(i32 0, 2) i32 @test_namemap_stored() #0 {
  %1 = tail call ptr @ossl_namemap_stored(ptr noundef null) #2
  %2 = tail call i32 @test_ptr(ptr noundef nonnull @.str.7, i32 noundef 69, ptr noundef nonnull @.str.15, ptr noundef %1) #2
  %.not = icmp eq i32 %2, 0
  br i1 %.not, label %5, label %3

3:                                                ; preds = %0
  %4 = tail call fastcc i32 @test_namemap(ptr noundef %1)
  br label %5

5:                                                ; preds = %3, %0
  %6 = phi i32 [ 0, %0 ], [ %4, %3 ]
  ret i32 %6
}